target datalayout = "e-m:e-p270:32:32-p271:32:32-p272:64:64-i64:64-i128:128-f80:128-n8:16:32:64-S128"
target triple = "x86_64-pc-linux-gnu"

%struct.AVFormatContext = type { ptr, ptr, ptr, ptr, ptr, i32, i32, ptr, i32, ptr, i32, ptr, ptr, i64, i64, i64, i32, i32, i32, i64, i64, ptr, i32, i32, ptr, i32, i32, i32, i32, ptr, i64, i32, i32, %struct.AVIOInterruptCB, i32, i32, i32, i32, i64, i32, i32, i32, i32, i32, i32, i32, i32, i32, i32, i32, i32, i64, i32, i32, i32, i32, i32, ptr, ptr, ptr, ptr, i32, ptr, ptr, ptr, ptr, i32, ptr, ptr, i64, ptr, ptr, ptr, i64 }
%struct.AVIOInterruptCB = type { ptr, ptr }
%struct.ASFContext = type { ptr, [128 x i32], [128 x %struct.ASFStream], [128 x i32], [128 x %struct.AVRational], [128 x [6 x i8]], i32, i64, i64, i64, i32, %struct.ASFMainHeader, i32, i32, i32, i32, i32, i32, i32, i32, i32, i32, i32, i64, i32, i32, i32, i64, i64, i32, ptr, i32, i32, i32 }
%struct.ASFStream = type { i32, i8, %struct.AVPacket, i32, i32, i32, i64, i32, i32, i32, i32, i32, i64, i16, i32, [256 x i32], i32, [8 x %struct.ASFPayload] }
%struct.AVPacket = type { ptr, i64, i64, ptr, i32, i32, i32, ptr, i32, i64, i64, ptr, ptr, %struct.AVRational }
%struct.AVRational = type { i32, i32 }
%struct.ASFPayload = type { i8, i16 }
%struct.ASFMainHeader = type { [16 x i8], i64, i64, i64, i64, i32, i32, i32, i32, i32, i32 }

@.str.30 = private unnamed_addr constant [30 x i8] c"Assertion %s failed at %s:%d\0A\00", align 1
@.str.31 = private unnamed_addr constant [38 x i8] c"(unsigned)len < (2147483647 - 22) / 2\00", align 1
@.str.32 = private unnamed_addr constant [23 x i8] c"libavformat/asfdec_f.c\00", align 1
@.str.33 = private unnamed_addr constant [4 x i8] c"xmp\00", align 1
@.str.34 = private unnamed_addr constant [35 x i8] c"Unsupported byte array in tag %s.\0A\00", align 1
@.str.35 = private unnamed_addr constant [4 x i8] c"%lu\00", align 1
@.str.36 = private unnamed_addr constant [35 x i8] c"Unsupported GUID value in tag %s.\0A\00", align 1
@.str.37 = private unnamed_addr constant [38 x i8] c"Unsupported value type %d in tag %s.\0A\00", align 1

; Function Attrs: nounwind uwtable
define internal i32 @get_value(ptr noundef %0, i32 noundef %1, i32 noundef %2) #0 {
  %4 = alloca i32, align 4
  %5 = alloca ptr, align 8
  %6 = alloca i32, align 4
  %7 = alloca i32, align 4
  store ptr %0, ptr %5, align 8, !tbaa !33
  store i32 %1, ptr %6, align 4, !tbaa !34
  store i32 %2, ptr %7, align 4, !tbaa !34
  %8 = load i32, ptr %6, align 4, !tbaa !34
  switch i32 %8, label %30 [
    i32 2, label %9
    i32 3, label %20
    i32 4, label %23
    i32 5, label %27
  ]

9:                                                ; preds = %3
  %10 = load i32, ptr %7, align 4, !tbaa !34
  %11 = icmp eq i32 %10, 32
  br i1 %11, label %12, label %15

12:                                               ; preds = %9
  %13 = load ptr, ptr %5, align 8, !tbaa !33
  %14 = call i32 @avio_rl32(ptr noundef %13)
  br label %18

15:                                               ; preds = %9
  %16 = load ptr, ptr %5, align 8, !tbaa !33
  %17 = call i32 @avio_rl16(ptr noundef %16)
  br label %18

18:                                               ; preds = %15, %12
  %19 = phi i32 [ %14, %12 ], [ %17, %15 ]
  store i32 %19, ptr %4, align 4
  br label %31

20:                                               ; preds = %3
  %21 = load ptr, ptr %5, align 8, !tbaa !33
  %22 = call i32 @avio_rl32(ptr noundef %21)
  store i32 %22, ptr %4, align 4
  br label %31

23:                                               ; preds = %3
  %24 = load ptr, ptr %5, align 8, !tbaa !33
  %25 = call i64 @avio_rl64(ptr noundef %24)
  %26 = trunc i64 %25 to i32
  store i32 %26, ptr %4, align 4
  br label %31

27:                                               ; preds = %3
  %28 = load ptr, ptr %5, align 8, !tbaa !33
  %29 = call i32 @avio_rl16(ptr noundef %28)
  store i32 %29, ptr %4, align 4
  br label %31

30:                                               ; preds = %3
  store i32 -2147483648, ptr %4, align 4
  br label %31

31:                                               ; preds = %30, %27, %23, %20, %18
  %32 = load i32, ptr %4, align 4
  ret i32 %32
}

; Function Attrs: alwaysinline nounwind uwtable
define internal i64 @avio_tell(ptr noundef %0) #2 {
  %2 = alloca ptr, align 8
  store ptr %0, ptr %2, align 8, !tbaa !33
  %3 = load ptr, ptr %2, align 8, !tbaa !33
  %4 = call i64 @avio_seek(ptr noundef %3, i64 noundef 0, i32 noundef 1)
  ret i64 %4
}

; Function Attrs: nounwind uwtable
define internal void @get_tag(ptr noundef %0, ptr noundef %1, i32 noundef %2, i32 noundef %3, i32 noundef %4) #0 {
  %6 = alloca ptr, align 8
  %7 = alloca ptr, align 8
  %8 = alloca i32, align 4
  %9 = alloca i32, align 4
  %10 = alloca i32, align 4
  %11 = alloca ptr, align 8
  %12 = alloca ptr, align 8
  %13 = alloca i64, align 8
  %14 = alloca i64, align 8
  store ptr %0, ptr %6, align 8, !tbaa !13
  store ptr %1, ptr %7, align 8, !tbaa !76
  store i32 %2, ptr %8, align 4, !tbaa !34
  store i32 %3, ptr %9, align 4, !tbaa !34
  store i32 %4, ptr %10, align 4, !tbaa !34
  call void @llvm.lifetime.start.p0(i64 8, ptr %11) #11
  %15 = load ptr, ptr %6, align 8, !tbaa !13
  %16 = getelementptr inbounds nuw %struct.AVFormatContext, ptr %15, i32 0, i32 3
  %17 = load ptr, ptr %16, align 8, !tbaa !15
  store ptr %17, ptr %11, align 8, !tbaa !30
  call void @llvm.lifetime.start.p0(i64 8, ptr %12) #11
  store ptr null, ptr %12, align 8, !tbaa !76
  call void @llvm.lifetime.start.p0(i64 8, ptr %13) #11
  %18 = load ptr, ptr %6, align 8, !tbaa !13
  %19 = getelementptr inbounds nuw %struct.AVFormatContext, ptr %18, i32 0, i32 4
  %20 = load ptr, ptr %19, align 8, !tbaa !32
  %21 = call i64 @avio_tell(ptr noundef %20)
  store i64 %21, ptr %13, align 8, !tbaa !44
  br label %22

22:                                               ; preds = %5
  %23 = load i32, ptr %9, align 4, !tbaa !34
  %24 = icmp ult i32 %23, 1073741812
  br i1 %24, label %26, label %25

25:                                               ; preds = %22
  call void (ptr, i32, ptr, ...) @av_log(ptr noundef null, i32 noundef 0, ptr noundef @.str.30, ptr noundef @.str.31, ptr noundef @.str.32, i32 noundef 230)
  call void @abort() #13
  unreachable

26:                                               ; preds = %22
  br label %27

27:                                               ; preds = %26
  br label %28

28:                                               ; preds = %27
  %29 = load ptr, ptr %11, align 8, !tbaa !30
  %30 = getelementptr inbounds nuw %struct.ASFContext, ptr %29, i32 0, i32 32
  %31 = load i32, ptr %30, align 4, !tbaa !146
  %32 = icmp ne i32 %31, 0
  br i1 %32, label %38, label %33

33:                                               ; preds = %28
  %34 = load ptr, ptr %7, align 8, !tbaa !76
  %35 = call i32 @strncmp(ptr noundef %34, ptr noundef @.str.33, i64 noundef 3) #12
  %36 = icmp ne i32 %35, 0
  br i1 %36, label %38, label %37

37:                                               ; preds = %33
  br label %109

38:                                               ; preds = %33, %28
  %39 = load i32, ptr %9, align 4, !tbaa !34
  %40 = mul nsw i32 2, %39
  %41 = add nsw i32 %40, 22
  %42 = sext i32 %41 to i64
  %43 = call noalias ptr @av_malloc(i64 noundef %42)
  store ptr %43, ptr %12, align 8, !tbaa !76
  %44 = load ptr, ptr %12, align 8, !tbaa !76
  %45 = icmp ne ptr %44, null
  br i1 %45, label %47, label %46

46:                                               ; preds = %38
  br label %109

47:                                               ; preds = %38
  %48 = load i32, ptr %8, align 4, !tbaa !34
  switch i32 %48, label %94 [
    i32 0, label %49
    i32 -1, label %59
    i32 1, label %70
    i32 2, label %80
    i32 3, label %80
    i32 4, label %80
    i32 5, label %80
    i32 6, label %91
  ]

49:                                               ; preds = %47
  %50 = load ptr, ptr %6, align 8, !tbaa !13
  %51 = getelementptr inbounds nuw %struct.AVFormatContext, ptr %50, i32 0, i32 4
  %52 = load ptr, ptr %51, align 8, !tbaa !32
  %53 = load i32, ptr %9, align 4, !tbaa !34
  %54 = load ptr, ptr %12, align 8, !tbaa !76
  %55 = load i32, ptr %9, align 4, !tbaa !34
  %56 = mul nsw i32 2, %55
  %57 = add nsw i32 %56, 1
  %58 = call i32 @avio_get_str16le(ptr noundef %52, i32 noundef %53, ptr noundef %54, i32 noundef %57)
  br label %98

59:                                               ; preds = %47
  %60 = load ptr, ptr %6, align 8, !tbaa !13
  %61 = getelementptr inbounds nuw %struct.AVFormatContext, ptr %60, i32 0, i32 4
  %62 = load ptr, ptr %61, align 8, !tbaa !32
  %63 = load ptr, ptr %12, align 8, !tbaa !76
  %64 = load i32, ptr %9, align 4, !tbaa !34
  %65 = call i32 @avio_read(ptr noundef %62, ptr noundef %63, i32 noundef %64)
  %66 = load ptr, ptr %12, align 8, !tbaa !76
  %67 = load i32, ptr %9, align 4, !tbaa !34
  %68 = sext i32 %67 to i64
  %69 = getelementptr inbounds i8, ptr %66, i64 %68
  store i8 0, ptr %69, align 1, !tbaa !77
  br label %98

70:                                               ; preds = %47
  %71 = load ptr, ptr %6, align 8, !tbaa !13
  %72 = load ptr, ptr %7, align 8, !tbaa !76
  %73 = load i32, ptr %9, align 4, !tbaa !34
  %74 = call i32 @ff_asf_handle_byte_array(ptr noundef %71, ptr noundef %72, i32 noundef %73)
  %75 = icmp sgt i32 %74, 0
  br i1 %75, label %76, label %79

76:                                               ; preds = %70
  %77 = load ptr, ptr %6, align 8, !tbaa !13
  %78 = load ptr, ptr %7, align 8, !tbaa !76
  call void (ptr, i32, ptr, ...) @av_log(ptr noundef %77, i32 noundef 40, ptr noundef @.str.34, ptr noundef %78)
  br label %79

79:                                               ; preds = %76, %70
  br label %109

80:                                               ; preds = %47, %47, %47, %47
  call void @llvm.lifetime.start.p0(i64 8, ptr %14) #11
  %81 = load ptr, ptr %6, align 8, !tbaa !13
  %82 = getelementptr inbounds nuw %struct.AVFormatContext, ptr %81, i32 0, i32 4
  %83 = load ptr, ptr %82, align 8, !tbaa !32
  %84 = load i32, ptr %8, align 4, !tbaa !34
  %85 = load i32, ptr %10, align 4, !tbaa !34
  %86 = call i32 @get_value(ptr noundef %83, i32 noundef %84, i32 noundef %85)
  %87 = sext i32 %86 to i64
  store i64 %87, ptr %14, align 8, !tbaa !44
  %88 = load ptr, ptr %12, align 8, !tbaa !76
  %89 = load i64, ptr %14, align 8, !tbaa !44
  %90 = call i32 (ptr, i64, ptr, ...) @snprintf(ptr noundef %88, i64 noundef 22, ptr noundef @.str.35, i64 noundef %89) #11
  call void @llvm.lifetime.end.p0(i64 8, ptr %14) #11
  br label %98

91:                                               ; preds = %47
  %92 = load ptr, ptr %6, align 8, !tbaa !13
  %93 = load ptr, ptr %7, align 8, !tbaa !76
  call void (ptr, i32, ptr, ...) @av_log(ptr noundef %92, i32 noundef 48, ptr noundef @.str.36, ptr noundef %93)
  br label %109

94:                                               ; preds = %47
  %95 = load ptr, ptr %6, align 8, !tbaa !13
  %96 = load i32, ptr %8, align 4, !tbaa !34
  %97 = load ptr, ptr %7, align 8, !tbaa !76
  call void (ptr, i32, ptr, ...) @av_log(ptr noundef %95, i32 noundef 48, ptr noundef @.str.37, i32 noundef %96, ptr noundef %97)
  br label %109

98:                                               ; preds = %80, %59, %49
  %99 = load ptr, ptr %12, align 8, !tbaa !76
  %100 = load i8, ptr %99, align 1, !tbaa !77
  %101 = icmp ne i8 %100, 0
  br i1 %101, label %102, label %108

102:                                              ; preds = %98
  %103 = load ptr, ptr %6, align 8, !tbaa !13
  %104 = getelementptr inbounds nuw %struct.AVFormatContext, ptr %103, i32 0, i32 29
  %105 = load ptr, ptr %7, align 8, !tbaa !76
  %106 = load ptr, ptr %12, align 8, !tbaa !76
  %107 = call i32 @av_dict_set(ptr noundef %104, ptr noundef %105, ptr noundef %106, i32 noundef 0)
  br label %108

108:                                              ; preds = %102, %98
  br label %109

109:                                              ; preds = %108, %94, %91, %79, %46, %37
  call void @av_freep(ptr noundef %12)
  %110 = load ptr, ptr %6, align 8, !tbaa !13
  %111 = getelementptr inbounds nuw %struct.AVFormatContext, ptr %110, i32 0, i32 4
  %112 = load ptr, ptr %111, align 8, !tbaa !32
  %113 = load i64, ptr %13, align 8, !tbaa !44
  %114 = load i32, ptr %9, align 4, !tbaa !34
  %115 = sext i32 %114 to i64
  %116 = add nsw i64 %113, %115
  %117 = call i64 @avio_seek(ptr noundef %112, i64 noundef %116, i32 noundef 0)
  call void @llvm.lifetime.end.p0(i64 8, ptr %13) #11
  call void @llvm.lifetime.end.p0(i64 8, ptr %12) #11
  call void @llvm.lifetime.end.p0(i64 8, ptr %11) #11
  ret void
}