; Function Attrs: nounwind uwtable
define internal fastcc void @get_tag(ptr noundef %0, ptr noundef %1, i32 noundef %2, i32 noundef %3, i32 noundef range(i32 16, 33) %4) unnamed_addr #1 {
  %6 = alloca ptr, align 8
  %7 = getelementptr inbounds nuw i8, ptr %0, i64 24
  %8 = load ptr, ptr %7, align 8, !tbaa !11
  call void @llvm.lifetime.start.p0(i64 8, ptr nonnull %6) #14
  store ptr null, ptr %6, align 8, !tbaa !156
  %9 = getelementptr inbounds nuw i8, ptr %0, i64 32
  %10 = load ptr, ptr %9, align 8, !tbaa !26
  %11 = tail call i64 @avio_seek(ptr noundef %10, i64 noundef 0, i32 noundef 1) #14
  %12 = icmp ult i32 %3, 1073741812
  br i1 %12, label %14, label %13

13:                                               ; preds = %5
  tail call void (ptr, i32, ptr, ...) @av_log(ptr noundef null, i32 noundef 0, ptr noundef nonnull @.str.30, ptr noundef nonnull @.str.31, ptr noundef nonnull @.str.32, i32 noundef 230) #14
  tail call void @abort() #16
  unreachable

14:                                               ; preds = %5
  %15 = getelementptr inbounds nuw i8, ptr %8, i64 161764
  %16 = load i32, ptr %15, align 4, !tbaa !179
  %.not = icmp eq i32 %16, 0
  br i1 %.not, label %sub_0, label %.tail.thread

sub_0:                                            ; preds = %14
  %17 = load i8, ptr %1, align 1
  %.not35 = icmp eq i8 %17, 120
  br i1 %.not35, label %sub_1, label %.tail.thread

sub_1:                                            ; preds = %sub_0
  %18 = getelementptr inbounds nuw i8, ptr %1, i64 1
  %19 = load i8, ptr %18, align 1
  %.not36 = icmp eq i8 %19, 109
  br i1 %.not36, label %.tail, label %.tail.thread

.tail:                                            ; preds = %sub_1
  %20 = getelementptr inbounds nuw i8, ptr %1, i64 2
  %21 = load i8, ptr %20, align 1
  %22 = icmp eq i8 %21, 112
  br i1 %22, label %65, label %.tail.thread

.tail.thread:                                     ; preds = %sub_1, %sub_0, %.tail, %14
  %23 = shl nuw nsw i32 %3, 1
  %24 = add nuw nsw i32 %23, 22
  %25 = zext nneg i32 %24 to i64
  %26 = tail call noalias ptr @av_malloc(i64 noundef %25) #14
  store ptr %26, ptr %6, align 8, !tbaa !156
  %.not33 = icmp eq ptr %26, null
  br i1 %.not33, label %65, label %27

27:                                               ; preds = %.tail.thread
  switch i32 %2, label %59 [
    i32 0, label %28
    i32 -1, label %32
    i32 1, label %37
    i32 2, label %41
    i32 3, label %41
    i32 4, label %41
    i32 5, label %41
    i32 6, label %58
  ]

28:                                               ; preds = %27
  %29 = load ptr, ptr %9, align 8, !tbaa !26
  %30 = or disjoint i32 %23, 1
  %31 = tail call i32 @avio_get_str16le(ptr noundef %29, i32 noundef %3, ptr noundef nonnull %26, i32 noundef %30) #14
  br label %60

32:                                               ; preds = %27
  %33 = load ptr, ptr %9, align 8, !tbaa !26
  %34 = tail call i32 @avio_read(ptr noundef %33, ptr noundef nonnull %26, i32 noundef %3) #14
  %35 = zext nneg i32 %3 to i64
  %36 = getelementptr inbounds nuw i8, ptr %26, i64 %35
  store i8 0, ptr %36, align 1, !tbaa !93
  br label %60

37:                                               ; preds = %27
  %38 = tail call i32 @ff_asf_handle_byte_array(ptr noundef nonnull %0, ptr noundef %1, i32 noundef %3) #14
  %39 = icmp sgt i32 %38, 0
  br i1 %39, label %40, label %65

40:                                               ; preds = %37
  tail call void (ptr, i32, ptr, ...) @av_log(ptr noundef nonnull %0, i32 noundef 40, ptr noundef nonnull @.str.34, ptr noundef %1) #14
  br label %65

41:                                               ; preds = %27, %27, %27, %27
  %42 = load ptr, ptr %9, align 8, !tbaa !26
  switch i32 %2, label %default.unreachable [
    i32 2, label %43
    i32 3, label %49
    i32 4, label %51
    i32 5, label %54
  ]

43:                                               ; preds = %41
  %44 = icmp eq i32 %4, 32
  br i1 %44, label %45, label %47

45:                                               ; preds = %43
  %46 = tail call i32 @avio_rl32(ptr noundef %42) #14
  br label %get_value.exit

47:                                               ; preds = %43
  %48 = tail call i32 @avio_rl16(ptr noundef %42) #14
  br label %get_value.exit

49:                                               ; preds = %41
  %50 = tail call i32 @avio_rl32(ptr noundef %42) #14
  br label %get_value.exit

51:                                               ; preds = %41
  %52 = tail call i64 @avio_rl64(ptr noundef %42) #14
  %53 = trunc i64 %52 to i32
  br label %get_value.exit

54:                                               ; preds = %41
  %55 = tail call i32 @avio_rl16(ptr noundef %42) #14
  br label %get_value.exit

default.unreachable:                              ; preds = %41
  unreachable

get_value.exit:                                   ; preds = %45, %47, %49, %51, %54
  %.0.i = phi i32 [ %55, %54 ], [ %53, %51 ], [ %50, %49 ], [ %46, %45 ], [ %48, %47 ]
  %56 = sext i32 %.0.i to i64
  %57 = tail call i32 (ptr, i64, ptr, ...) @snprintf(ptr noundef nonnull dereferenceable(1) %26, i64 noundef 22, ptr noundef nonnull @.str.35, i64 noundef %56) #14
  br label %60

58:                                               ; preds = %27
  tail call void (ptr, i32, ptr, ...) @av_log(ptr noundef nonnull %0, i32 noundef 48, ptr noundef nonnull @.str.36, ptr noundef %1) #14
  br label %65

59:                                               ; preds = %27
  tail call void (ptr, i32, ptr, ...) @av_log(ptr noundef nonnull %0, i32 noundef 48, ptr noundef nonnull @.str.37, i32 noundef %2, ptr noundef %1) #14
  br label %65

60:                                               ; preds = %get_value.exit, %32, %28
  %61 = load i8, ptr %26, align 1, !tbaa !93
  %.not34 = icmp eq i8 %61, 0
  br i1 %.not34, label %65, label %62

62:                                               ; preds = %60
  %63 = getelementptr inbounds nuw i8, ptr %0, i64 192
  %64 = tail call i32 @av_dict_set(ptr noundef nonnull %63, ptr noundef %1, ptr noundef nonnull %26, i32 noundef 0) #14
  br label %65

65:                                               ; preds = %60, %62, %37, %40, %.tail.thread, %.tail, %59, %58
  call void @av_freep(ptr noundef nonnull %6) #14
  %66 = load ptr, ptr %9, align 8, !tbaa !26
  %67 = zext nneg i32 %3 to i64
  %68 = add nsw i64 %11, %67
  %69 = call i64 @avio_seek(ptr noundef %66, i64 noundef %68, i32 noundef 0) #14
  call void @llvm.lifetime.end.p0(i64 8, ptr nonnull %6) #14
  ret void
}